target datalayout = "e-m:e-p270:32:32-p271:32:32-p272:64:64-i64:64-i128:128-f80:128-n8:16:32:64-S128"
target triple = "x86_64-pc-linux-gnu"

; Function Attrs: alwaysinline nounwind willreturn memory(none) uwtable
define internal zeroext i8 @av_clip_uint8_c(i32 noundef %0) #3 {
  %2 = alloca i8, align 1
  %3 = alloca i32, align 4
  store i32 %0, ptr %3, align 4, !tbaa !11
  %4 = load i32, ptr %3, align 4, !tbaa !11
  %5 = and i32 %4, -256
  %6 = icmp ne i32 %5, 0
  br i1 %6, label %7, label %12

7:                                                ; preds = %1
  %8 = load i32, ptr %3, align 4, !tbaa !11
  %9 = xor i32 %8, -1
  %10 = ashr i32 %9, 31
  %11 = trunc i32 %10 to i8
  store i8 %11, ptr %2, align 1
  br label %15

12:                                               ; preds = %1
  %13 = load i32, ptr %3, align 4, !tbaa !11
  %14 = trunc i32 %13 to i8
  store i8 %14, ptr %2, align 1
  br label %15

15:                                               ; preds = %12, %7
  %16 = load i8, ptr %2, align 1
  ret i8 %16
}

; Function Attrs: nounwind uwtable
define void @ff_gradfun_filter_line_c(ptr noundef %0, ptr noundef %1, ptr noundef %2, i32 noundef %3, i32 noundef %4, ptr noundef %5) #0 {
  %7 = alloca ptr, align 8
  %8 = alloca ptr, align 8
  %9 = alloca ptr, align 8
  %10 = alloca i32, align 4
  %11 = alloca i32, align 4
  %12 = alloca ptr, align 8
  %13 = alloca i32, align 4
  %14 = alloca i32, align 4
  %15 = alloca i32, align 4
  %16 = alloca i32, align 4
  store ptr %0, ptr %7, align 8, !tbaa !4
  store ptr %1, ptr %8, align 8, !tbaa !4
  store ptr %2, ptr %9, align 8, !tbaa !9
  store i32 %3, ptr %10, align 4, !tbaa !11
  store i32 %4, ptr %11, align 4, !tbaa !11
  store ptr %5, ptr %12, align 8, !tbaa !9
  call void @llvm.lifetime.start.p0(i64 4, ptr %13) #8
  store i32 0, ptr %13, align 4, !tbaa !11
  br label %17

17:                                               ; preds = %73, %6
  %18 = load i32, ptr %13, align 4, !tbaa !11
  %19 = load i32, ptr %10, align 4, !tbaa !11
  %20 = icmp slt i32 %18, %19
  br i1 %20, label %21, label %81

21:                                               ; preds = %17
  call void @llvm.lifetime.start.p0(i64 4, ptr %14) #8
  %22 = load ptr, ptr %8, align 8, !tbaa !4
  %23 = load i32, ptr %13, align 4, !tbaa !11
  %24 = sext i32 %23 to i64
  %25 = getelementptr inbounds i8, ptr %22, i64 %24
  %26 = load i8, ptr %25, align 1, !tbaa !13
  %27 = zext i8 %26 to i32
  %28 = shl i32 %27, 7
  store i32 %28, ptr %14, align 4, !tbaa !11
  call void @llvm.lifetime.start.p0(i64 4, ptr %15) #8
  %29 = load ptr, ptr %9, align 8, !tbaa !9
  %30 = getelementptr inbounds i16, ptr %29, i64 0
  %31 = load i16, ptr %30, align 2, !tbaa !14
  %32 = zext i16 %31 to i32
  %33 = load i32, ptr %14, align 4, !tbaa !11
  %34 = sub nsw i32 %32, %33
  store i32 %34, ptr %15, align 4, !tbaa !11
  call void @llvm.lifetime.start.p0(i64 4, ptr %16) #8
  %35 = load i32, ptr %15, align 4, !tbaa !11
  %36 = call i32 @llvm.abs.i32(i32 %35, i1 true)
  %37 = load i32, ptr %11, align 4, !tbaa !11
  %38 = mul nsw i32 %36, %37
  %39 = ashr i32 %38, 16
  store i32 %39, ptr %16, align 4, !tbaa !11
  %40 = load i32, ptr %16, align 4, !tbaa !11
  %41 = sub nsw i32 127, %40
  %42 = icmp sgt i32 0, %41
  br i1 %42, label %43, label %44

43:                                               ; preds = %21
  br label %47

44:                                               ; preds = %21
  %45 = load i32, ptr %16, align 4, !tbaa !11
  %46 = sub nsw i32 127, %45
  br label %47

47:                                               ; preds = %44, %43
  %48 = phi i32 [ 0, %43 ], [ %46, %44 ]
  store i32 %48, ptr %16, align 4, !tbaa !11
  %49 = load i32, ptr %16, align 4, !tbaa !11
  %50 = load i32, ptr %16, align 4, !tbaa !11
  %51 = mul nsw i32 %49, %50
  %52 = load i32, ptr %15, align 4, !tbaa !11
  %53 = mul nsw i32 %51, %52
  %54 = ashr i32 %53, 14
  store i32 %54, ptr %16, align 4, !tbaa !11
  %55 = load i32, ptr %16, align 4, !tbaa !11
  %56 = load ptr, ptr %12, align 8, !tbaa !9
  %57 = load i32, ptr %13, align 4, !tbaa !11
  %58 = and i32 %57, 7
  %59 = sext i32 %58 to i64
  %60 = getelementptr inbounds i16, ptr %56, i64 %59
  %61 = load i16, ptr %60, align 2, !tbaa !14
  %62 = zext i16 %61 to i32
  %63 = add nsw i32 %55, %62
  %64 = load i32, ptr %14, align 4, !tbaa !11
  %65 = add nsw i32 %64, %63
  store i32 %65, ptr %14, align 4, !tbaa !11
  %66 = load i32, ptr %14, align 4, !tbaa !11
  %67 = ashr i32 %66, 7
  %68 = call zeroext i8 @av_clip_uint8_c(i32 noundef %67) #9
  %69 = load ptr, ptr %7, align 8, !tbaa !4
  %70 = load i32, ptr %13, align 4, !tbaa !11
  %71 = sext i32 %70 to i64
  %72 = getelementptr inbounds i8, ptr %69, i64 %71
  store i8 %68, ptr %72, align 1, !tbaa !13
  call void @llvm.lifetime.end.p0(i64 4, ptr %16) #8
  call void @llvm.lifetime.end.p0(i64 4, ptr %15) #8
  call void @llvm.lifetime.end.p0(i64 4, ptr %14) #8
  br label %73

73:                                               ; preds = %47
  %74 = load i32, ptr %13, align 4, !tbaa !11
  %75 = and i32 %74, 1
  %76 = load ptr, ptr %9, align 8, !tbaa !9
  %77 = sext i32 %75 to i64
  %78 = getelementptr inbounds i16, ptr %76, i64 %77
  store ptr %78, ptr %9, align 8, !tbaa !9
  %79 = load i32, ptr %13, align 4, !tbaa !11
  %80 = add nsw i32 %79, 1
  store i32 %80, ptr %13, align 4, !tbaa !11
  br label %17, !llvm.loop !16

81:                                               ; preds = %17
  call void @llvm.lifetime.end.p0(i64 4, ptr %13) #8
  ret void
}