; Function Attrs: nofree norecurse nosync nounwind memory(argmem: readwrite) uwtable
define void @ff_gradfun_filter_line_c(ptr noundef writeonly captures(none) %0, ptr noundef readonly captures(none) %1, ptr noundef readonly captures(none) %2, i32 noundef %3, i32 noundef %4, ptr noundef readonly captures(none) %5) #0 {
  %7 = icmp sgt i32 %3, 0
  br i1 %7, label %.lr.ph.preheader, label %._crit_edge

.lr.ph.preheader:                                 ; preds = %6
  %wide.trip.count = zext nneg i32 %3 to i64
  br label %.lr.ph

.lr.ph:                                           ; preds = %.lr.ph.preheader, %.lr.ph
  %indvars.iv = phi i64 [ 0, %.lr.ph.preheader ], [ %indvars.iv.next, %.lr.ph ]
  %.024 = phi ptr [ %2, %.lr.ph.preheader ], [ %34, %.lr.ph ]
  %8 = getelementptr inbounds nuw i8, ptr %1, i64 %indvars.iv
  %9 = load i8, ptr %8, align 1, !tbaa !4
  %10 = zext i8 %9 to i32
  %11 = shl nuw nsw i32 %10, 7
  %12 = load i16, ptr %.024, align 2, !tbaa !7
  %13 = zext i16 %12 to i32
  %14 = sub nsw i32 %13, %11
  %15 = tail call i32 @llvm.abs.i32(i32 %14, i1 true)
  %16 = mul nsw i32 %15, %4
  %17 = ashr i32 %16, 16
  %18 = sub nsw i32 127, %17
  %19 = tail call i32 @llvm.smax.i32(i32 %18, i32 0)
  %20 = mul i32 %19, %14
  %21 = mul i32 %20, %19
  %22 = ashr i32 %21, 14
  %23 = and i64 %indvars.iv, 7
  %24 = getelementptr inbounds nuw i16, ptr %5, i64 %23
  %25 = load i16, ptr %24, align 2, !tbaa !7
  %26 = zext i16 %25 to i32
  %27 = add nuw nsw i32 %11, %26
  %28 = add nsw i32 %27, %22
  %29 = ashr i32 %28, 7
  %.not.i = icmp ult i32 %29, 256
  %isnotneg.i = icmp sgt i32 %29, -1
  %30 = sext i1 %isnotneg.i to i8
  %31 = trunc nuw i32 %29 to i8
  %.0.i = select i1 %.not.i, i8 %31, i8 %30
  %32 = getelementptr inbounds nuw i8, ptr %0, i64 %indvars.iv
  store i8 %.0.i, ptr %32, align 1, !tbaa !4
  %33 = and i64 %indvars.iv, 1
  %34 = getelementptr inbounds nuw i16, ptr %.024, i64 %33
  %indvars.iv.next = add nuw nsw i64 %indvars.iv, 1
  %exitcond.not = icmp eq i64 %indvars.iv.next, %wide.trip.count
  br i1 %exitcond.not, label %._crit_edge, label %.lr.ph, !llvm.loop !9

._crit_edge:                                      ; preds = %.lr.ph, %6
  ret void
}